target datalayout = "e-m:e-p270:32:32-p271:32:32-p272:64:64-i64:64-i128:128-f80:128-n8:16:32:64-S128"
target triple = "x86_64-pc-linux-gnu"

%struct.evthread_lock_callbacks = type { i32, i32, ptr, ptr, ptr, ptr }
%struct.event_base = type { ptr, ptr, %struct.event_changelist, ptr, %struct.evsig_info, i32, i32, i32, i32, i32, i32, i32, i32, i32, i32, i32, i32, ptr, i32, %struct.evcallback_list, ptr, i32, i32, %struct.event_signal_map, %struct.event_signal_map, %struct.min_heap, %struct.timeval, %struct.evutil_monotonic_timer, %struct.timeval, i64, i64, ptr, ptr, i32, ptr, i32, %struct.timeval, i32, i32, i32, [2 x i32], %struct.event, ptr, %struct.evutil_weakrand_state, %struct.once_event_list, [2 x %struct.evwatch_list] }
%struct.event_changelist = type { ptr, i32, i32 }
%struct.evsig_info = type { %struct.event, [2 x i32], i32, i32, [65 x ptr], ptr, i32 }
%struct.evcallback_list = type { ptr, ptr }
%struct.event_signal_map = type { ptr, i32 }
%struct.min_heap = type { ptr, i64, i64 }
%struct.evutil_monotonic_timer = type { i32, %struct.timeval, %struct.timeval }
%struct.timeval = type { i64, i64 }
%struct.event = type { %struct.event_callback, %union.anon.0, i32, i16, i16, ptr, %union.anon.2, %struct.timeval }
%struct.event_callback = type { %struct.anon, i16, i8, i8, %union.anon, ptr }
%struct.anon = type { ptr, ptr }
%union.anon = type { ptr }
%union.anon.0 = type { %struct.anon.1 }
%struct.anon.1 = type { ptr, ptr }
%union.anon.2 = type { %struct.anon.3 }
%struct.anon.3 = type { %struct.anon.4, %struct.timeval }
%struct.anon.4 = type { ptr, ptr }
%struct.evutil_weakrand_state = type { i32 }
%struct.once_event_list = type { ptr }
%struct.evwatch_list = type { ptr, ptr }
%struct.selectop = type { i32, i32, i32, ptr, ptr, ptr, ptr }
%struct.fd_set = type { [16 x i64] }

@.str = private unnamed_addr constant [7 x i8] c"select\00", align 1
@evthread_lock_fns_ = external global %struct.evthread_lock_callbacks, align 8
@event_debug_logging_mask_ = external global i32, align 4
@.str.2 = private unnamed_addr constant [22 x i8] c"%s: select reports %d\00", align 1
@__func__.select_dispatch = private unnamed_addr constant [16 x i8] c"select_dispatch\00", align 1

; Function Attrs: nounwind uwtable
define internal i32 @select_dispatch(ptr noundef %0, ptr noundef %1) #0 {
  %3 = alloca i32, align 4
  %4 = alloca ptr, align 8
  %5 = alloca ptr, align 8
  %6 = alloca i32, align 4
  %7 = alloca i32, align 4
  %8 = alloca i32, align 4
  %9 = alloca i32, align 4
  %10 = alloca ptr, align 8
  %11 = alloca ptr, align 8
  %12 = alloca ptr, align 8
  %13 = alloca i64, align 8
  %14 = alloca i32, align 4
  store ptr %0, ptr %4, align 8
  store ptr %1, ptr %5, align 8
  call void @llvm.lifetime.start.p0(i64 4, ptr %6) #6
  store i32 0, ptr %6, align 4
  call void @llvm.lifetime.start.p0(i64 4, ptr %7) #6
  call void @llvm.lifetime.start.p0(i64 4, ptr %8) #6
  call void @llvm.lifetime.start.p0(i64 4, ptr %9) #6
  call void @llvm.lifetime.start.p0(i64 8, ptr %10) #6
  %15 = load ptr, ptr %4, align 8
  %16 = getelementptr inbounds nuw %struct.event_base, ptr %15, i32 0, i32 1
  %17 = load ptr, ptr %16, align 8
  store ptr %17, ptr %10, align 8
  br label %18

18:                                               ; preds = %2
  br label %19

19:                                               ; preds = %18
  br label %20

20:                                               ; preds = %19
  %21 = load ptr, ptr %10, align 8
  %22 = getelementptr inbounds nuw %struct.selectop, ptr %21, i32 0, i32 2
  %23 = load i32, ptr %22, align 8
  %24 = icmp ne i32 %23, 0
  br i1 %24, label %25, label %57

25:                                               ; preds = %20
  call void @llvm.lifetime.start.p0(i64 8, ptr %11) #6
  store ptr null, ptr %11, align 8
  call void @llvm.lifetime.start.p0(i64 8, ptr %12) #6
  store ptr null, ptr %12, align 8
  call void @llvm.lifetime.start.p0(i64 8, ptr %13) #6
  %26 = load ptr, ptr %10, align 8
  %27 = getelementptr inbounds nuw %struct.selectop, ptr %26, i32 0, i32 1
  %28 = load i32, ptr %27, align 4
  %29 = sext i32 %28 to i64
  store i64 %29, ptr %13, align 8
  %30 = load ptr, ptr %10, align 8
  %31 = getelementptr inbounds nuw %struct.selectop, ptr %30, i32 0, i32 5
  %32 = load ptr, ptr %31, align 8
  %33 = load i64, ptr %13, align 8
  %34 = call ptr @event_mm_realloc_(ptr noundef %32, i64 noundef %33)
  store ptr %34, ptr %11, align 8
  %35 = icmp ne ptr %34, null
  br i1 %35, label %37, label %36

36:                                               ; preds = %25
  store i32 -1, ptr %3, align 4
  store i32 1, ptr %14, align 4
  br label %54

37:                                               ; preds = %25
  %38 = load ptr, ptr %11, align 8
  %39 = load ptr, ptr %10, align 8
  %40 = getelementptr inbounds nuw %struct.selectop, ptr %39, i32 0, i32 5
  store ptr %38, ptr %40, align 8
  %41 = load ptr, ptr %10, align 8
  %42 = getelementptr inbounds nuw %struct.selectop, ptr %41, i32 0, i32 6
  %43 = load ptr, ptr %42, align 8
  %44 = load i64, ptr %13, align 8
  %45 = call ptr @event_mm_realloc_(ptr noundef %43, i64 noundef %44)
  store ptr %45, ptr %12, align 8
  %46 = icmp ne ptr %45, null
  br i1 %46, label %48, label %47

47:                                               ; preds = %37
  store i32 -1, ptr %3, align 4
  store i32 1, ptr %14, align 4
  br label %54

48:                                               ; preds = %37
  %49 = load ptr, ptr %12, align 8
  %50 = load ptr, ptr %10, align 8
  %51 = getelementptr inbounds nuw %struct.selectop, ptr %50, i32 0, i32 6
  store ptr %49, ptr %51, align 8
  %52 = load ptr, ptr %10, align 8
  %53 = getelementptr inbounds nuw %struct.selectop, ptr %52, i32 0, i32 2
  store i32 0, ptr %53, align 8
  store i32 0, ptr %14, align 4
  br label %54

54:                                               ; preds = %48, %47, %36
  call void @llvm.lifetime.end.p0(i64 8, ptr %13) #6
  call void @llvm.lifetime.end.p0(i64 8, ptr %12) #6
  call void @llvm.lifetime.end.p0(i64 8, ptr %11) #6
  %55 = load i32, ptr %14, align 4
  switch i32 %55, label %216 [
    i32 0, label %56
  ]

56:                                               ; preds = %54
  br label %57

57:                                               ; preds = %56, %20
  %58 = load ptr, ptr %10, align 8
  %59 = getelementptr inbounds nuw %struct.selectop, ptr %58, i32 0, i32 5
  %60 = load ptr, ptr %59, align 8
  %61 = load ptr, ptr %10, align 8
  %62 = getelementptr inbounds nuw %struct.selectop, ptr %61, i32 0, i32 3
  %63 = load ptr, ptr %62, align 8
  %64 = load ptr, ptr %10, align 8
  %65 = getelementptr inbounds nuw %struct.selectop, ptr %64, i32 0, i32 1
  %66 = load i32, ptr %65, align 4
  %67 = sext i32 %66 to i64
  call void @llvm.memcpy.p0.p0.i64(ptr align 8 %60, ptr align 8 %63, i64 %67, i1 false)
  %68 = load ptr, ptr %10, align 8
  %69 = getelementptr inbounds nuw %struct.selectop, ptr %68, i32 0, i32 6
  %70 = load ptr, ptr %69, align 8
  %71 = load ptr, ptr %10, align 8
  %72 = getelementptr inbounds nuw %struct.selectop, ptr %71, i32 0, i32 4
  %73 = load ptr, ptr %72, align 8
  %74 = load ptr, ptr %10, align 8
  %75 = getelementptr inbounds nuw %struct.selectop, ptr %74, i32 0, i32 1
  %76 = load i32, ptr %75, align 4
  %77 = sext i32 %76 to i64
  call void @llvm.memcpy.p0.p0.i64(ptr align 8 %70, ptr align 8 %73, i64 %77, i1 false)
  %78 = load ptr, ptr %10, align 8
  %79 = getelementptr inbounds nuw %struct.selectop, ptr %78, i32 0, i32 0
  %80 = load i32, ptr %79, align 8
  %81 = add nsw i32 %80, 1
  store i32 %81, ptr %9, align 4
  br label %82

82:                                               ; preds = %57
  br label %83

83:                                               ; preds = %82
  %84 = load ptr, ptr %4, align 8
  %85 = getelementptr inbounds nuw %struct.event_base, ptr %84, i32 0, i32 31
  %86 = load ptr, ptr %85, align 8
  %87 = icmp ne ptr %86, null
  br i1 %87, label %88, label %94

88:                                               ; preds = %83
  %89 = load ptr, ptr getelementptr inbounds nuw (%struct.evthread_lock_callbacks, ptr @evthread_lock_fns_, i32 0, i32 5), align 8
  %90 = load ptr, ptr %4, align 8
  %91 = getelementptr inbounds nuw %struct.event_base, ptr %90, i32 0, i32 31
  %92 = load ptr, ptr %91, align 8
  %93 = call i32 %89(i32 noundef 0, ptr noundef %92)
  br label %94

94:                                               ; preds = %88, %83
  br label %95

95:                                               ; preds = %94
  br label %96

96:                                               ; preds = %95
  br label %97

97:                                               ; preds = %96
  br label %98

98:                                               ; preds = %97
  %99 = load i32, ptr %9, align 4
  %100 = load ptr, ptr %10, align 8
  %101 = getelementptr inbounds nuw %struct.selectop, ptr %100, i32 0, i32 5
  %102 = load ptr, ptr %101, align 8
  %103 = load ptr, ptr %10, align 8
  %104 = getelementptr inbounds nuw %struct.selectop, ptr %103, i32 0, i32 6
  %105 = load ptr, ptr %104, align 8
  %106 = load ptr, ptr %5, align 8
  %107 = call i32 @select(i32 noundef %99, ptr noundef %102, ptr noundef %105, ptr noundef null, ptr noundef %106)
  store i32 %107, ptr %6, align 4
  br label %108

108:                                              ; preds = %98
  br label %109

109:                                              ; preds = %108
  %110 = load ptr, ptr %4, align 8
  %111 = getelementptr inbounds nuw %struct.event_base, ptr %110, i32 0, i32 31
  %112 = load ptr, ptr %111, align 8
  %113 = icmp ne ptr %112, null
  br i1 %113, label %114, label %120

114:                                              ; preds = %109
  %115 = load ptr, ptr getelementptr inbounds nuw (%struct.evthread_lock_callbacks, ptr @evthread_lock_fns_, i32 0, i32 4), align 8
  %116 = load ptr, ptr %4, align 8
  %117 = getelementptr inbounds nuw %struct.event_base, ptr %116, i32 0, i32 31
  %118 = load ptr, ptr %117, align 8
  %119 = call i32 %115(i32 noundef 0, ptr noundef %118)
  br label %120

120:                                              ; preds = %114, %109
  br label %121

121:                                              ; preds = %120
  br label %122

122:                                              ; preds = %121
  br label %123

123:                                              ; preds = %122
  br label %124

124:                                              ; preds = %123
  br label %125

125:                                              ; preds = %124
  br label %126

126:                                              ; preds = %125
  br label %127

127:                                              ; preds = %126
  %128 = load i32, ptr %6, align 4
  %129 = icmp eq i32 %128, -1
  br i1 %129, label %130, label %136

130:                                              ; preds = %127
  %131 = call ptr @__errno_location() #7
  %132 = load i32, ptr %131, align 4
  %133 = icmp ne i32 %132, 4
  br i1 %133, label %134, label %135

134:                                              ; preds = %130
  call void (ptr, ...) @event_warn(ptr noundef @.str)
  store i32 -1, ptr %3, align 4
  store i32 1, ptr %14, align 4
  br label %216

135:                                              ; preds = %130
  store i32 0, ptr %3, align 4
  store i32 1, ptr %14, align 4
  br label %216

136:                                              ; preds = %127
  br label %137

137:                                              ; preds = %136
  %138 = load i32, ptr @event_debug_logging_mask_, align 4
  %139 = icmp ne i32 %138, 0
  br i1 %139, label %140, label %142

140:                                              ; preds = %137
  %141 = load i32, ptr %6, align 4
  call void (ptr, ...) @event_debugx_(ptr noundef @.str.2, ptr noundef @__func__.select_dispatch, i32 noundef %141)
  br label %142

142:                                              ; preds = %140, %137
  br label %143

143:                                              ; preds = %142
  br label %144

144:                                              ; preds = %143
  br label %145

145:                                              ; preds = %144
  br label %146

146:                                              ; preds = %145
  br label %147

147:                                              ; preds = %146
  %148 = load ptr, ptr %4, align 8
  %149 = getelementptr inbounds nuw %struct.event_base, ptr %148, i32 0, i32 43
  %150 = load i32, ptr %9, align 4
  %151 = call i32 @evutil_weakrand_range_(ptr noundef %149, i32 noundef %150)
  store i32 %151, ptr %7, align 4
  store i32 0, ptr %8, align 4
  br label %152

152:                                              ; preds = %209, %147
  %153 = load i32, ptr %8, align 4
  %154 = load i32, ptr %9, align 4
  %155 = icmp slt i32 %153, %154
  br i1 %155, label %156, label %212

156:                                              ; preds = %152
  %157 = load i32, ptr %7, align 4
  %158 = add nsw i32 %157, 1
  store i32 %158, ptr %7, align 4
  %159 = load i32, ptr %9, align 4
  %160 = icmp sge i32 %158, %159
  br i1 %160, label %161, label %162

161:                                              ; preds = %156
  store i32 0, ptr %7, align 4
  br label %162

162:                                              ; preds = %161, %156
  store i32 0, ptr %6, align 4
  %163 = load ptr, ptr %10, align 8
  %164 = getelementptr inbounds nuw %struct.selectop, ptr %163, i32 0, i32 5
  %165 = load ptr, ptr %164, align 8
  %166 = getelementptr inbounds nuw %struct.fd_set, ptr %165, i32 0, i32 0
  %167 = load i32, ptr %7, align 4
  %168 = sdiv i32 %167, 64
  %169 = sext i32 %168 to i64
  %170 = getelementptr inbounds [16 x i64], ptr %166, i64 0, i64 %169
  %171 = load i64, ptr %170, align 8
  %172 = load i32, ptr %7, align 4
  %173 = srem i32 %172, 64
  %174 = zext i32 %173 to i64
  %175 = shl i64 1, %174
  %176 = and i64 %171, %175
  %177 = icmp ne i64 %176, 0
  br i1 %177, label %178, label %181

178:                                              ; preds = %162
  %179 = load i32, ptr %6, align 4
  %180 = or i32 %179, 2
  store i32 %180, ptr %6, align 4
  br label %181

181:                                              ; preds = %178, %162
  %182 = load ptr, ptr %10, align 8
  %183 = getelementptr inbounds nuw %struct.selectop, ptr %182, i32 0, i32 6
  %184 = load ptr, ptr %183, align 8
  %185 = getelementptr inbounds nuw %struct.fd_set, ptr %184, i32 0, i32 0
  %186 = load i32, ptr %7, align 4
  %187 = sdiv i32 %186, 64
  %188 = sext i32 %187 to i64
  %189 = getelementptr inbounds [16 x i64], ptr %185, i64 0, i64 %188
  %190 = load i64, ptr %189, align 8
  %191 = load i32, ptr %7, align 4
  %192 = srem i32 %191, 64
  %193 = zext i32 %192 to i64
  %194 = shl i64 1, %193
  %195 = and i64 %190, %194
  %196 = icmp ne i64 %195, 0
  br i1 %196, label %197, label %200

197:                                              ; preds = %181
  %198 = load i32, ptr %6, align 4
  %199 = or i32 %198, 4
  store i32 %199, ptr %6, align 4
  br label %200

200:                                              ; preds = %197, %181
  %201 = load i32, ptr %6, align 4
  %202 = icmp eq i32 %201, 0
  br i1 %202, label %203, label %204

203:                                              ; preds = %200
  br label %209

204:                                              ; preds = %200
  %205 = load ptr, ptr %4, align 8
  %206 = load i32, ptr %7, align 4
  %207 = load i32, ptr %6, align 4
  %208 = trunc i32 %207 to i16
  call void @evmap_io_active_(ptr noundef %205, i32 noundef %206, i16 noundef signext %208)
  br label %209

209:                                              ; preds = %204, %203
  %210 = load i32, ptr %8, align 4
  %211 = add nsw i32 %210, 1
  store i32 %211, ptr %8, align 4
  br label %152, !llvm.loop !5

212:                                              ; preds = %152
  br label %213

213:                                              ; preds = %212
  br label %214

214:                                              ; preds = %213
  br label %215

215:                                              ; preds = %214
  store i32 0, ptr %3, align 4
  store i32 1, ptr %14, align 4
  br label %216

216:                                              ; preds = %215, %135, %134, %54
  call void @llvm.lifetime.end.p0(i64 8, ptr %10) #6
  call void @llvm.lifetime.end.p0(i64 4, ptr %9) #6
  call void @llvm.lifetime.end.p0(i64 4, ptr %8) #6
  call void @llvm.lifetime.end.p0(i64 4, ptr %7) #6
  call void @llvm.lifetime.end.p0(i64 4, ptr %6) #6
  %217 = load i32, ptr %3, align 4
  ret i32 %217
}