; Function Attrs: nounwind uwtable
define internal range(i32 -1, 1) i32 @select_dispatch(ptr noundef %0, ptr noundef %1) #0 {
  %3 = getelementptr inbounds nuw i8, ptr %0, i64 8
  %4 = load ptr, ptr %3, align 8
  %5 = getelementptr inbounds nuw i8, ptr %4, i64 8
  %6 = load i32, ptr %5, align 8
  %.not = icmp eq i32 %6, 0
  br i1 %.not, label %18, label %7

7:                                                ; preds = %2
  %8 = getelementptr inbounds nuw i8, ptr %4, i64 4
  %9 = load i32, ptr %8, align 4
  %10 = sext i32 %9 to i64
  %11 = getelementptr inbounds nuw i8, ptr %4, i64 32
  %12 = load ptr, ptr %11, align 8
  %13 = tail call ptr @event_mm_realloc_(ptr noundef %12, i64 noundef %10) #7
  %.not60 = icmp eq ptr %13, null
  br i1 %.not60, label %.loopexit, label %14

14:                                               ; preds = %7
  store ptr %13, ptr %11, align 8
  %15 = getelementptr inbounds nuw i8, ptr %4, i64 40
  %16 = load ptr, ptr %15, align 8
  %17 = tail call ptr @event_mm_realloc_(ptr noundef %16, i64 noundef %10) #7
  %.not61 = icmp eq ptr %17, null
  br i1 %.not61, label %.loopexit, label %.critedge

.critedge:                                        ; preds = %14
  store ptr %17, ptr %15, align 8
  store i32 0, ptr %5, align 8
  br label %18

18:                                               ; preds = %.critedge, %2
  %19 = getelementptr inbounds nuw i8, ptr %4, i64 32
  %20 = load ptr, ptr %19, align 8
  %21 = getelementptr inbounds nuw i8, ptr %4, i64 16
  %22 = load ptr, ptr %21, align 8
  %23 = getelementptr inbounds nuw i8, ptr %4, i64 4
  %24 = load i32, ptr %23, align 4
  %25 = sext i32 %24 to i64
  tail call void @llvm.memcpy.p0.p0.i64(ptr align 8 %20, ptr align 8 %22, i64 %25, i1 false)
  %26 = getelementptr inbounds nuw i8, ptr %4, i64 40
  %27 = load ptr, ptr %26, align 8
  %28 = getelementptr inbounds nuw i8, ptr %4, i64 24
  %29 = load ptr, ptr %28, align 8
  %30 = load i32, ptr %23, align 4
  %31 = sext i32 %30 to i64
  tail call void @llvm.memcpy.p0.p0.i64(ptr align 8 %27, ptr align 8 %29, i64 %31, i1 false)
  %32 = load i32, ptr %4, align 8
  %33 = add i32 %32, 1
  %34 = getelementptr inbounds nuw i8, ptr %0, i64 952
  %35 = load ptr, ptr %34, align 8
  %.not62 = icmp eq ptr %35, null
  br i1 %.not62, label %39, label %36

36:                                               ; preds = %18
  %37 = load ptr, ptr getelementptr inbounds nuw (i8, ptr @evthread_lock_fns_, i64 32), align 8
  %38 = tail call i32 %37(i32 noundef 0, ptr noundef nonnull %35) #7
  br label %39

39:                                               ; preds = %36, %18
  %40 = load ptr, ptr %19, align 8
  %41 = load ptr, ptr %26, align 8
  %42 = tail call i32 @select(i32 noundef %33, ptr noundef %40, ptr noundef %41, ptr noundef null, ptr noundef %1) #7
  %43 = load ptr, ptr %34, align 8
  %.not63 = icmp eq ptr %43, null
  br i1 %.not63, label %47, label %44

44:                                               ; preds = %39
  %45 = load ptr, ptr getelementptr inbounds nuw (i8, ptr @evthread_lock_fns_, i64 24), align 8
  %46 = tail call i32 %45(i32 noundef 0, ptr noundef nonnull %43) #7
  br label %47

47:                                               ; preds = %39, %44
  %48 = icmp eq i32 %42, -1
  br i1 %48, label %49, label %53

49:                                               ; preds = %47
  %50 = tail call ptr @__errno_location() #8
  %51 = load i32, ptr %50, align 4
  %.not69 = icmp eq i32 %51, 4
  br i1 %.not69, label %.loopexit, label %52

52:                                               ; preds = %49
  tail call void (ptr, ...) @event_warn(ptr noundef nonnull @.str) #7
  br label %.loopexit

53:                                               ; preds = %47
  %54 = load i32, ptr @event_debug_logging_mask_, align 4
  %.not64 = icmp eq i32 %54, 0
  br i1 %.not64, label %56, label %55

55:                                               ; preds = %53
  tail call void (ptr, ...) @event_debugx_(ptr noundef nonnull @.str.2, ptr noundef nonnull @__func__.select_dispatch, i32 noundef %42) #7
  br label %56

56:                                               ; preds = %53, %55
  %57 = getelementptr inbounds nuw i8, ptr %0, i64 1160
  %58 = tail call i32 @evutil_weakrand_range_(ptr noundef nonnull %57, i32 noundef %33) #7
  %.not6570 = icmp slt i32 %32, 0
  br i1 %.not6570, label %.loopexit, label %.lr.ph

.lr.ph:                                           ; preds = %56, %76
  %.05272 = phi i32 [ %spec.store.select, %76 ], [ %58, %56 ]
  %.05371 = phi i32 [ %77, %76 ], [ 0, %56 ]
  %59 = add nsw i32 %.05272, 1
  %.not66 = icmp slt i32 %.05272, %32
  %spec.store.select = select i1 %.not66, i32 %59, i32 0
  %60 = load ptr, ptr %19, align 8
  %61 = sdiv i32 %spec.store.select, 64
  %62 = sext i32 %61 to i64
  %63 = getelementptr inbounds [16 x i64], ptr %60, i64 0, i64 %62
  %64 = load i64, ptr %63, align 8
  %65 = srem i32 %spec.store.select, 64
  %66 = zext nneg i32 %65 to i64
  %67 = shl nuw i64 1, %66
  %68 = and i64 %64, %67
  %.not67 = icmp eq i64 %68, 0
  %69 = load ptr, ptr %26, align 8
  %70 = getelementptr inbounds [16 x i64], ptr %69, i64 0, i64 %62
  %71 = load i64, ptr %70, align 8
  %72 = and i64 %71, %67
  %.not68 = icmp eq i64 %72, 0
  %73 = select i1 %.not68, i1 %.not67, i1 false
  br i1 %73, label %76, label %74

74:                                               ; preds = %.lr.ph
  %spec.select = select i1 %.not67, i16 0, i16 2
  %75 = or disjoint i16 %spec.select, 4
  %.151 = select i1 %.not68, i16 %spec.select, i16 %75
  tail call void @evmap_io_active_(ptr noundef %0, i32 noundef %spec.store.select, i16 noundef signext %.151) #7
  br label %76

76:                                               ; preds = %.lr.ph, %74
  %77 = add nuw i32 %.05371, 1
  %exitcond.not = icmp eq i32 %.05371, %32
  br i1 %exitcond.not, label %.loopexit, label %.lr.ph, !llvm.loop !5

.loopexit:                                        ; preds = %76, %56, %49, %7, %14, %52
  %.1 = phi i32 [ -1, %52 ], [ -1, %14 ], [ -1, %7 ], [ 0, %49 ], [ 0, %56 ], [ 0, %76 ]
  ret i32 %.1
}